target datalayout = "e-m:e-p270:32:32-p271:32:32-p272:64:64-i64:64-i128:128-f80:128-n8:16:32:64-S128"
target triple = "x86_64-pc-linux-gnu"

%struct.easy_pollset = type { [5 x i32], i32, [5 x i8] }

; Function Attrs: nounwind uwtable
define dso_local void @Curl_pollset_change(ptr noundef %0, ptr noundef %1, i32 noundef %2, i32 noundef %3, i32 noundef %4) #0 {
  %6 = alloca ptr, align 8
  %7 = alloca ptr, align 8
  %8 = alloca i32, align 4
  %9 = alloca i32, align 4
  %10 = alloca i32, align 4
  %11 = alloca i32, align 4
  %12 = alloca i32, align 4
  store ptr %0, ptr %6, align 8, !tbaa !9
  store ptr %1, ptr %7, align 8, !tbaa !54
  store i32 %2, ptr %8, align 4, !tbaa !53
  store i32 %3, ptr %9, align 4, !tbaa !53
  store i32 %4, ptr %10, align 4, !tbaa !53
  call void @llvm.lifetime.start.p0(i64 4, ptr %11) #5
  br label %13

13:                                               ; preds = %5
  br label %14

14:                                               ; preds = %13
  br label %15

15:                                               ; preds = %14
  %16 = load i32, ptr %8, align 4, !tbaa !53
  %17 = icmp sge i32 %16, 0
  br i1 %17, label %19, label %18

18:                                               ; preds = %15
  store i32 1, ptr %12, align 4
  br label %162

19:                                               ; preds = %15
  br label %20

20:                                               ; preds = %19
  br label %21

21:                                               ; preds = %20
  br label %22

22:                                               ; preds = %21
  br label %23

23:                                               ; preds = %22
  br label %24

24:                                               ; preds = %23
  br label %25

25:                                               ; preds = %24
  br label %26

26:                                               ; preds = %25
  br label %27

27:                                               ; preds = %26
  br label %28

28:                                               ; preds = %27
  store i32 0, ptr %11, align 4, !tbaa !53
  br label %29

29:                                               ; preds = %130, %28
  %30 = load i32, ptr %11, align 4, !tbaa !53
  %31 = load ptr, ptr %7, align 8, !tbaa !54
  %32 = getelementptr inbounds nuw %struct.easy_pollset, ptr %31, i32 0, i32 1
  %33 = load i32, ptr %32, align 4, !tbaa !155
  %34 = icmp ult i32 %30, %33
  br i1 %34, label %35, label %133

35:                                               ; preds = %29
  %36 = load ptr, ptr %7, align 8, !tbaa !54
  %37 = getelementptr inbounds nuw %struct.easy_pollset, ptr %36, i32 0, i32 0
  %38 = load i32, ptr %11, align 4, !tbaa !53
  %39 = zext i32 %38 to i64
  %40 = getelementptr inbounds nuw [5 x i32], ptr %37, i64 0, i64 %39
  %41 = load i32, ptr %40, align 4, !tbaa !53
  %42 = load i32, ptr %8, align 4, !tbaa !53
  %43 = icmp eq i32 %41, %42
  br i1 %43, label %44, label %129

44:                                               ; preds = %35
  %45 = load i32, ptr %10, align 4, !tbaa !53
  %46 = xor i32 %45, -1
  %47 = trunc i32 %46 to i8
  %48 = zext i8 %47 to i32
  %49 = load ptr, ptr %7, align 8, !tbaa !54
  %50 = getelementptr inbounds nuw %struct.easy_pollset, ptr %49, i32 0, i32 2
  %51 = load i32, ptr %11, align 4, !tbaa !53
  %52 = zext i32 %51 to i64
  %53 = getelementptr inbounds nuw [5 x i8], ptr %50, i64 0, i64 %52
  %54 = load i8, ptr %53, align 1, !tbaa !157
  %55 = zext i8 %54 to i32
  %56 = and i32 %55, %48
  %57 = trunc i32 %56 to i8
  store i8 %57, ptr %53, align 1, !tbaa !157
  %58 = load i32, ptr %9, align 4, !tbaa !53
  %59 = trunc i32 %58 to i8
  %60 = zext i8 %59 to i32
  %61 = load ptr, ptr %7, align 8, !tbaa !54
  %62 = getelementptr inbounds nuw %struct.easy_pollset, ptr %61, i32 0, i32 2
  %63 = load i32, ptr %11, align 4, !tbaa !53
  %64 = zext i32 %63 to i64
  %65 = getelementptr inbounds nuw [5 x i8], ptr %62, i64 0, i64 %64
  %66 = load i8, ptr %65, align 1, !tbaa !157
  %67 = zext i8 %66 to i32
  %68 = or i32 %67, %60
  %69 = trunc i32 %68 to i8
  store i8 %69, ptr %65, align 1, !tbaa !157
  %70 = load ptr, ptr %7, align 8, !tbaa !54
  %71 = getelementptr inbounds nuw %struct.easy_pollset, ptr %70, i32 0, i32 2
  %72 = load i32, ptr %11, align 4, !tbaa !53
  %73 = zext i32 %72 to i64
  %74 = getelementptr inbounds nuw [5 x i8], ptr %71, i64 0, i64 %73
  %75 = load i8, ptr %74, align 1, !tbaa !157
  %76 = icmp ne i8 %75, 0
  br i1 %76, label %128, label %77

77:                                               ; preds = %44
  %78 = load i32, ptr %11, align 4, !tbaa !53
  %79 = add i32 %78, 1
  %80 = load ptr, ptr %7, align 8, !tbaa !54
  %81 = getelementptr inbounds nuw %struct.easy_pollset, ptr %80, i32 0, i32 1
  %82 = load i32, ptr %81, align 4, !tbaa !155
  %83 = icmp ult i32 %79, %82
  br i1 %83, label %84, label %123

84:                                               ; preds = %77
  %85 = load ptr, ptr %7, align 8, !tbaa !54
  %86 = getelementptr inbounds nuw %struct.easy_pollset, ptr %85, i32 0, i32 0
  %87 = load i32, ptr %11, align 4, !tbaa !53
  %88 = zext i32 %87 to i64
  %89 = getelementptr inbounds nuw [5 x i32], ptr %86, i64 0, i64 %88
  %90 = load ptr, ptr %7, align 8, !tbaa !54
  %91 = getelementptr inbounds nuw %struct.easy_pollset, ptr %90, i32 0, i32 0
  %92 = load i32, ptr %11, align 4, !tbaa !53
  %93 = add i32 %92, 1
  %94 = zext i32 %93 to i64
  %95 = getelementptr inbounds nuw [5 x i32], ptr %91, i64 0, i64 %94
  %96 = load ptr, ptr %7, align 8, !tbaa !54
  %97 = getelementptr inbounds nuw %struct.easy_pollset, ptr %96, i32 0, i32 1
  %98 = load i32, ptr %97, align 4, !tbaa !155
  %99 = load i32, ptr %11, align 4, !tbaa !53
  %100 = add i32 %99, 1
  %101 = sub i32 %98, %100
  %102 = zext i32 %101 to i64
  %103 = mul i64 %102, 4
  call void @llvm.memmove.p0.p0.i64(ptr align 4 %89, ptr align 4 %95, i64 %103, i1 false)
  %104 = load ptr, ptr %7, align 8, !tbaa !54
  %105 = getelementptr inbounds nuw %struct.easy_pollset, ptr %104, i32 0, i32 2
  %106 = load i32, ptr %11, align 4, !tbaa !53
  %107 = zext i32 %106 to i64
  %108 = getelementptr inbounds nuw [5 x i8], ptr %105, i64 0, i64 %107
  %109 = load ptr, ptr %7, align 8, !tbaa !54
  %110 = getelementptr inbounds nuw %struct.easy_pollset, ptr %109, i32 0, i32 2
  %111 = load i32, ptr %11, align 4, !tbaa !53
  %112 = add i32 %111, 1
  %113 = zext i32 %112 to i64
  %114 = getelementptr inbounds nuw [5 x i8], ptr %110, i64 0, i64 %113
  %115 = load ptr, ptr %7, align 8, !tbaa !54
  %116 = getelementptr inbounds nuw %struct.easy_pollset, ptr %115, i32 0, i32 1
  %117 = load i32, ptr %116, align 4, !tbaa !155
  %118 = load i32, ptr %11, align 4, !tbaa !53
  %119 = add i32 %118, 1
  %120 = sub i32 %117, %119
  %121 = zext i32 %120 to i64
  %122 = mul i64 %121, 1
  call void @llvm.memmove.p0.p0.i64(ptr align 1 %108, ptr align 1 %114, i64 %122, i1 false)
  br label %123

123:                                              ; preds = %84, %77
  %124 = load ptr, ptr %7, align 8, !tbaa !54
  %125 = getelementptr inbounds nuw %struct.easy_pollset, ptr %124, i32 0, i32 1
  %126 = load i32, ptr %125, align 4, !tbaa !155
  %127 = add i32 %126, -1
  store i32 %127, ptr %125, align 4, !tbaa !155
  br label %128

128:                                              ; preds = %123, %44
  store i32 1, ptr %12, align 4
  br label %162

129:                                              ; preds = %35
  br label %130

130:                                              ; preds = %129
  %131 = load i32, ptr %11, align 4, !tbaa !53
  %132 = add i32 %131, 1
  store i32 %132, ptr %11, align 4, !tbaa !53
  br label %29, !llvm.loop !171

133:                                              ; preds = %29
  %134 = load i32, ptr %9, align 4, !tbaa !53
  %135 = icmp ne i32 %134, 0
  br i1 %135, label %136, label %161

136:                                              ; preds = %133
  br label %137

137:                                              ; preds = %136
  br label %138

138:                                              ; preds = %137
  br label %139

139:                                              ; preds = %138
  %140 = load i32, ptr %11, align 4, !tbaa !53
  %141 = icmp ult i32 %140, 5
  br i1 %141, label %142, label %160

142:                                              ; preds = %139
  %143 = load i32, ptr %8, align 4, !tbaa !53
  %144 = load ptr, ptr %7, align 8, !tbaa !54
  %145 = getelementptr inbounds nuw %struct.easy_pollset, ptr %144, i32 0, i32 0
  %146 = load i32, ptr %11, align 4, !tbaa !53
  %147 = zext i32 %146 to i64
  %148 = getelementptr inbounds nuw [5 x i32], ptr %145, i64 0, i64 %147
  store i32 %143, ptr %148, align 4, !tbaa !53
  %149 = load i32, ptr %9, align 4, !tbaa !53
  %150 = trunc i32 %149 to i8
  %151 = load ptr, ptr %7, align 8, !tbaa !54
  %152 = getelementptr inbounds nuw %struct.easy_pollset, ptr %151, i32 0, i32 2
  %153 = load i32, ptr %11, align 4, !tbaa !53
  %154 = zext i32 %153 to i64
  %155 = getelementptr inbounds nuw [5 x i8], ptr %152, i64 0, i64 %154
  store i8 %150, ptr %155, align 1, !tbaa !157
  %156 = load i32, ptr %11, align 4, !tbaa !53
  %157 = add i32 %156, 1
  %158 = load ptr, ptr %7, align 8, !tbaa !54
  %159 = getelementptr inbounds nuw %struct.easy_pollset, ptr %158, i32 0, i32 1
  store i32 %157, ptr %159, align 4, !tbaa !155
  br label %160

160:                                              ; preds = %142, %139
  br label %161

161:                                              ; preds = %160, %133
  store i32 0, ptr %12, align 4
  br label %162

162:                                              ; preds = %161, %128, %18
  call void @llvm.lifetime.end.p0(i64 4, ptr %11) #5
  %163 = load i32, ptr %12, align 4
  switch i32 %163, label %165 [
    i32 0, label %164
    i32 1, label %164
  ]

164:                                              ; preds = %162, %162
  ret void

165:                                              ; preds = %162
  unreachable
}