; Function Attrs: nofree norecurse nosync nounwind memory(argmem: readwrite) uwtable
define dso_local void @Curl_pollset_change(ptr noundef readnone captures(none) %0, ptr noundef captures(none) %1, i32 noundef %2, i32 noundef %3, i32 noundef %4) local_unnamed_addr #9 {
  %6 = icmp sgt i32 %2, -1
  br i1 %6, label %.preheader, label %47

.preheader:                                       ; preds = %5
  %7 = getelementptr inbounds nuw i8, ptr %1, i64 20
  %8 = load i32, ptr %7, align 4, !tbaa !143
  %.not51 = icmp eq i32 %8, 0
  br i1 %.not51, label %._crit_edge, label %.lr.ph.preheader

.lr.ph.preheader:                                 ; preds = %.preheader
  %wide.trip.count = zext i32 %8 to i64
  br label %.lr.ph

.lr.ph:                                           ; preds = %.lr.ph.preheader, %37
  %indvars.iv = phi i64 [ 0, %.lr.ph.preheader ], [ %indvars.iv.next, %37 ]
  %9 = getelementptr inbounds nuw [5 x i32], ptr %1, i64 0, i64 %indvars.iv
  %10 = load i32, ptr %9, align 4, !tbaa !44
  %11 = icmp eq i32 %10, %2
  br i1 %11, label %12, label %37

12:                                               ; preds = %.lr.ph
  %13 = getelementptr inbounds nuw [5 x i32], ptr %1, i64 0, i64 %indvars.iv
  %14 = getelementptr inbounds nuw i8, ptr %1, i64 24
  %15 = getelementptr inbounds nuw [5 x i8], ptr %14, i64 0, i64 %indvars.iv
  %16 = load i8, ptr %15, align 1, !tbaa !144
  %17 = trunc i32 %4 to i8
  %18 = xor i8 %17, -1
  %19 = and i8 %16, %18
  %20 = trunc i32 %3 to i8
  %21 = or i8 %19, %20
  store i8 %21, ptr %15, align 1, !tbaa !144
  %.not = icmp eq i8 %21, 0
  br i1 %.not, label %22, label %47

22:                                               ; preds = %12
  %23 = trunc nuw i64 %indvars.iv to i32
  %24 = add nuw i32 %23, 1
  %25 = icmp ult i32 %24, %8
  br i1 %25, label %26, label %36

26:                                               ; preds = %22
  %27 = zext i32 %24 to i64
  %28 = getelementptr inbounds nuw [5 x i32], ptr %1, i64 0, i64 %27
  %29 = sub nuw i32 %8, %24
  %30 = zext i32 %29 to i64
  %31 = shl nuw nsw i64 %30, 2
  tail call void @llvm.memmove.p0.p0.i64(ptr nonnull align 4 %13, ptr nonnull align 4 %28, i64 %31, i1 false)
  %32 = getelementptr inbounds nuw [5 x i8], ptr %14, i64 0, i64 %27
  %33 = load i32, ptr %7, align 4, !tbaa !143
  %34 = sub i32 %33, %24
  %35 = zext i32 %34 to i64
  tail call void @llvm.memmove.p0.p0.i64(ptr nonnull align 1 %15, ptr nonnull align 1 %32, i64 %35, i1 false)
  br label %36

36:                                               ; preds = %26, %22
  %.pre-phi.in = phi i32 [ %33, %26 ], [ %8, %22 ]
  %.pre-phi = add i32 %.pre-phi.in, -1
  br label %.sink.split

37:                                               ; preds = %.lr.ph
  %indvars.iv.next = add nuw nsw i64 %indvars.iv, 1
  %exitcond.not = icmp eq i64 %indvars.iv.next, %wide.trip.count
  br i1 %exitcond.not, label %._crit_edge, label %.lr.ph, !llvm.loop !150

._crit_edge:                                      ; preds = %37, %.preheader
  %38 = icmp ne i32 %3, 0
  %39 = icmp ult i32 %8, 5
  %or.cond = and i1 %38, %39
  br i1 %or.cond, label %40, label %47

40:                                               ; preds = %._crit_edge
  %41 = zext nneg i32 %8 to i64
  %42 = getelementptr inbounds nuw [5 x i32], ptr %1, i64 0, i64 %41
  store i32 %2, ptr %42, align 4, !tbaa !44
  %43 = trunc i32 %3 to i8
  %44 = getelementptr inbounds nuw i8, ptr %1, i64 24
  %45 = getelementptr inbounds nuw [5 x i8], ptr %44, i64 0, i64 %41
  store i8 %43, ptr %45, align 1, !tbaa !144
  %46 = add nuw nsw i32 %8, 1
  br label %.sink.split

.sink.split:                                      ; preds = %36, %40
  %.sink = phi i32 [ %46, %40 ], [ %.pre-phi, %36 ]
  store i32 %.sink, ptr %7, align 4, !tbaa !143
  br label %47

47:                                               ; preds = %.sink.split, %._crit_edge, %12, %5
  ret void
}